target datalayout = "e-m:e-p270:32:32-p271:32:32-p272:64:64-i64:64-i128:128-f80:128-n8:16:32:64-S128"
target triple = "x86_64-pc-linux-gnu"

%struct.KDF_ARGON2 = type { ptr, i32, ptr, i32, ptr, i32, ptr, i32, ptr, i32, i32, i32, i32, i32, i32, i32, i32, ptr, i32, i32, i32, i32, ptr, ptr, ptr, ptr }

@.str = private unnamed_addr constant [51 x i8] c"../openssl/providers/implementations/kdfs/argon2.c\00", align 1

; Function Attrs: nounwind uwtable
define internal void @kdf_argon2_init(ptr noundef %0, i32 noundef %1) #0 {
  %3 = alloca ptr, align 8
  %4 = alloca i32, align 4
  %5 = alloca ptr, align 8
  store ptr %0, ptr %3, align 8, !tbaa !3
  store i32 %1, ptr %4, align 4, !tbaa !26
  call void @llvm.lifetime.start.p0(i64 8, ptr %5) #6
  %6 = load ptr, ptr %3, align 8, !tbaa !3
  %7 = getelementptr inbounds nuw %struct.KDF_ARGON2, ptr %6, i32 0, i32 22
  %8 = load ptr, ptr %7, align 8, !tbaa !7
  store ptr %8, ptr %5, align 8, !tbaa !27
  %9 = load ptr, ptr %3, align 8, !tbaa !3
  call void @llvm.memset.p0.i64(ptr align 8 %9, i8 0, i64 160, i1 false)
  %10 = load ptr, ptr %5, align 8, !tbaa !27
  %11 = load ptr, ptr %3, align 8, !tbaa !3
  %12 = getelementptr inbounds nuw %struct.KDF_ARGON2, ptr %11, i32 0, i32 22
  store ptr %10, ptr %12, align 8, !tbaa !7
  %13 = load ptr, ptr %3, align 8, !tbaa !3
  %14 = getelementptr inbounds nuw %struct.KDF_ARGON2, ptr %13, i32 0, i32 1
  store i32 64, ptr %14, align 8, !tbaa !33
  %15 = load ptr, ptr %3, align 8, !tbaa !3
  %16 = getelementptr inbounds nuw %struct.KDF_ARGON2, ptr %15, i32 0, i32 10
  store i32 3, ptr %16, align 4, !tbaa !40
  %17 = load ptr, ptr %3, align 8, !tbaa !3
  %18 = getelementptr inbounds nuw %struct.KDF_ARGON2, ptr %17, i32 0, i32 11
  store i32 8, ptr %18, align 8, !tbaa !36
  %19 = load ptr, ptr %3, align 8, !tbaa !3
  %20 = getelementptr inbounds nuw %struct.KDF_ARGON2, ptr %19, i32 0, i32 12
  store i32 1, ptr %20, align 4, !tbaa !35
  %21 = load ptr, ptr %3, align 8, !tbaa !3
  %22 = getelementptr inbounds nuw %struct.KDF_ARGON2, ptr %21, i32 0, i32 13
  store i32 1, ptr %22, align 8, !tbaa !34
  %23 = load ptr, ptr %3, align 8, !tbaa !3
  %24 = getelementptr inbounds nuw %struct.KDF_ARGON2, ptr %23, i32 0, i32 14
  store i32 19, ptr %24, align 4, !tbaa !46
  %25 = load i32, ptr %4, align 4, !tbaa !26
  %26 = load ptr, ptr %3, align 8, !tbaa !3
  %27 = getelementptr inbounds nuw %struct.KDF_ARGON2, ptr %26, i32 0, i32 16
  store i32 %25, ptr %27, align 4, !tbaa !25
  call void @llvm.lifetime.end.p0(i64 8, ptr %5) #6
  ret void
}

; Function Attrs: nounwind uwtable
define internal void @kdf_argon2_reset(ptr noundef %0) #0 {
  %2 = alloca ptr, align 8
  %3 = alloca ptr, align 8
  %4 = alloca ptr, align 8
  %5 = alloca i32, align 4
  store ptr %0, ptr %2, align 8, !tbaa !3
  call void @llvm.lifetime.start.p0(i64 8, ptr %3) #6
  call void @llvm.lifetime.start.p0(i64 8, ptr %4) #6
  call void @llvm.lifetime.start.p0(i64 4, ptr %5) #6
  %6 = load ptr, ptr %2, align 8, !tbaa !3
  store ptr %6, ptr %4, align 8, !tbaa !3
  %7 = load ptr, ptr %4, align 8, !tbaa !3
  %8 = getelementptr inbounds nuw %struct.KDF_ARGON2, ptr %7, i32 0, i32 16
  %9 = load i32, ptr %8, align 4, !tbaa !25
  store i32 %9, ptr %5, align 4, !tbaa !26
  %10 = load ptr, ptr %4, align 8, !tbaa !3
  %11 = getelementptr inbounds nuw %struct.KDF_ARGON2, ptr %10, i32 0, i32 22
  %12 = load ptr, ptr %11, align 8, !tbaa !7
  store ptr %12, ptr %3, align 8, !tbaa !27
  %13 = load ptr, ptr %4, align 8, !tbaa !3
  %14 = getelementptr inbounds nuw %struct.KDF_ARGON2, ptr %13, i32 0, i32 23
  %15 = load ptr, ptr %14, align 8, !tbaa !22
  call void @EVP_MD_free(ptr noundef %15)
  %16 = load ptr, ptr %4, align 8, !tbaa !3
  %17 = getelementptr inbounds nuw %struct.KDF_ARGON2, ptr %16, i32 0, i32 24
  %18 = load ptr, ptr %17, align 8, !tbaa !23
  call void @EVP_MAC_free(ptr noundef %18)
  %19 = load ptr, ptr %4, align 8, !tbaa !3
  %20 = getelementptr inbounds nuw %struct.KDF_ARGON2, ptr %19, i32 0, i32 25
  %21 = load ptr, ptr %20, align 8, !tbaa !24
  call void @CRYPTO_free(ptr noundef %21, ptr noundef @.str, i32 noundef 1131)
  %22 = load ptr, ptr %4, align 8, !tbaa !3
  %23 = getelementptr inbounds nuw %struct.KDF_ARGON2, ptr %22, i32 0, i32 2
  %24 = load ptr, ptr %23, align 8, !tbaa !14
  %25 = icmp ne ptr %24, null
  br i1 %25, label %26, label %34

26:                                               ; preds = %1
  %27 = load ptr, ptr %4, align 8, !tbaa !3
  %28 = getelementptr inbounds nuw %struct.KDF_ARGON2, ptr %27, i32 0, i32 2
  %29 = load ptr, ptr %28, align 8, !tbaa !14
  %30 = load ptr, ptr %4, align 8, !tbaa !3
  %31 = getelementptr inbounds nuw %struct.KDF_ARGON2, ptr %30, i32 0, i32 3
  %32 = load i32, ptr %31, align 8, !tbaa !15
  %33 = zext i32 %32 to i64
  call void @CRYPTO_clear_free(ptr noundef %29, i64 noundef %33, ptr noundef @.str, i32 noundef 1134)
  br label %34

34:                                               ; preds = %26, %1
  %35 = load ptr, ptr %4, align 8, !tbaa !3
  %36 = getelementptr inbounds nuw %struct.KDF_ARGON2, ptr %35, i32 0, i32 4
  %37 = load ptr, ptr %36, align 8, !tbaa !16
  %38 = icmp ne ptr %37, null
  br i1 %38, label %39, label %47

39:                                               ; preds = %34
  %40 = load ptr, ptr %4, align 8, !tbaa !3
  %41 = getelementptr inbounds nuw %struct.KDF_ARGON2, ptr %40, i32 0, i32 4
  %42 = load ptr, ptr %41, align 8, !tbaa !16
  %43 = load ptr, ptr %4, align 8, !tbaa !3
  %44 = getelementptr inbounds nuw %struct.KDF_ARGON2, ptr %43, i32 0, i32 5
  %45 = load i32, ptr %44, align 8, !tbaa !17
  %46 = zext i32 %45 to i64
  call void @CRYPTO_clear_free(ptr noundef %42, i64 noundef %46, ptr noundef @.str, i32 noundef 1137)
  br label %47

47:                                               ; preds = %39, %34
  %48 = load ptr, ptr %4, align 8, !tbaa !3
  %49 = getelementptr inbounds nuw %struct.KDF_ARGON2, ptr %48, i32 0, i32 6
  %50 = load ptr, ptr %49, align 8, !tbaa !18
  %51 = icmp ne ptr %50, null
  br i1 %51, label %52, label %60

52:                                               ; preds = %47
  %53 = load ptr, ptr %4, align 8, !tbaa !3
  %54 = getelementptr inbounds nuw %struct.KDF_ARGON2, ptr %53, i32 0, i32 6
  %55 = load ptr, ptr %54, align 8, !tbaa !18
  %56 = load ptr, ptr %4, align 8, !tbaa !3
  %57 = getelementptr inbounds nuw %struct.KDF_ARGON2, ptr %56, i32 0, i32 7
  %58 = load i32, ptr %57, align 8, !tbaa !19
  %59 = zext i32 %58 to i64
  call void @CRYPTO_clear_free(ptr noundef %55, i64 noundef %59, ptr noundef @.str, i32 noundef 1140)
  br label %60

60:                                               ; preds = %52, %47
  %61 = load ptr, ptr %4, align 8, !tbaa !3
  %62 = getelementptr inbounds nuw %struct.KDF_ARGON2, ptr %61, i32 0, i32 8
  %63 = load ptr, ptr %62, align 8, !tbaa !20
  %64 = icmp ne ptr %63, null
  br i1 %64, label %65, label %73

65:                                               ; preds = %60
  %66 = load ptr, ptr %4, align 8, !tbaa !3
  %67 = getelementptr inbounds nuw %struct.KDF_ARGON2, ptr %66, i32 0, i32 8
  %68 = load ptr, ptr %67, align 8, !tbaa !20
  %69 = load ptr, ptr %4, align 8, !tbaa !3
  %70 = getelementptr inbounds nuw %struct.KDF_ARGON2, ptr %69, i32 0, i32 9
  %71 = load i32, ptr %70, align 8, !tbaa !21
  %72 = zext i32 %71 to i64
  call void @CRYPTO_clear_free(ptr noundef %68, i64 noundef %72, ptr noundef @.str, i32 noundef 1143)
  br label %73

73:                                               ; preds = %65, %60
  %74 = load ptr, ptr %4, align 8, !tbaa !3
  call void @llvm.memset.p0.i64(ptr align 8 %74, i8 0, i64 160, i1 false)
  %75 = load ptr, ptr %3, align 8, !tbaa !27
  %76 = load ptr, ptr %4, align 8, !tbaa !3
  %77 = getelementptr inbounds nuw %struct.KDF_ARGON2, ptr %76, i32 0, i32 22
  store ptr %75, ptr %77, align 8, !tbaa !7
  %78 = load ptr, ptr %4, align 8, !tbaa !3
  %79 = load i32, ptr %5, align 4, !tbaa !26
  call void @kdf_argon2_init(ptr noundef %78, i32 noundef %79)
  call void @llvm.lifetime.end.p0(i64 4, ptr %5) #6
  call void @llvm.lifetime.end.p0(i64 8, ptr %4) #6
  call void @llvm.lifetime.end.p0(i64 8, ptr %3) #6
  ret void
}