; Function Attrs: nounwind uwtable
define internal void @kdf_argon2_reset(ptr noundef captures(none) initializes((0, 16), (28, 32), (44, 48), (60, 64), (76, 100), (104, 128)) %0) #0 {
  %2 = getelementptr inbounds nuw i8, ptr %0, i64 100
  %3 = load i32, ptr %2, align 4, !tbaa !19
  %4 = getelementptr inbounds nuw i8, ptr %0, i64 128
  %5 = load ptr, ptr %4, align 8, !tbaa !3
  %6 = getelementptr inbounds nuw i8, ptr %0, i64 136
  %7 = load ptr, ptr %6, align 8, !tbaa !28
  tail call void @EVP_MD_free(ptr noundef %7) #10
  %8 = getelementptr inbounds nuw i8, ptr %0, i64 144
  %9 = load ptr, ptr %8, align 8, !tbaa !29
  tail call void @EVP_MAC_free(ptr noundef %9) #10
  %10 = getelementptr inbounds nuw i8, ptr %0, i64 152
  %11 = load ptr, ptr %10, align 8, !tbaa !30
  tail call void @CRYPTO_free(ptr noundef %11, ptr noundef nonnull @.str, i32 noundef 1131) #10
  %12 = getelementptr inbounds nuw i8, ptr %0, i64 16
  %13 = load ptr, ptr %12, align 8, !tbaa !20
  %.not = icmp eq ptr %13, null
  br i1 %.not, label %18, label %14

14:                                               ; preds = %1
  %15 = getelementptr inbounds nuw i8, ptr %0, i64 24
  %16 = load i32, ptr %15, align 8, !tbaa !21
  %17 = zext i32 %16 to i64
  tail call void @CRYPTO_clear_free(ptr noundef nonnull %13, i64 noundef %17, ptr noundef nonnull @.str, i32 noundef 1134) #10
  br label %18

18:                                               ; preds = %14, %1
  %19 = getelementptr inbounds nuw i8, ptr %0, i64 32
  %20 = load ptr, ptr %19, align 8, !tbaa !22
  %.not25 = icmp eq ptr %20, null
  br i1 %.not25, label %25, label %21

21:                                               ; preds = %18
  %22 = getelementptr inbounds nuw i8, ptr %0, i64 40
  %23 = load i32, ptr %22, align 8, !tbaa !23
  %24 = zext i32 %23 to i64
  tail call void @CRYPTO_clear_free(ptr noundef nonnull %20, i64 noundef %24, ptr noundef nonnull @.str, i32 noundef 1137) #10
  br label %25

25:                                               ; preds = %21, %18
  %26 = getelementptr inbounds nuw i8, ptr %0, i64 48
  %27 = load ptr, ptr %26, align 8, !tbaa !24
  %.not26 = icmp eq ptr %27, null
  br i1 %.not26, label %32, label %28

28:                                               ; preds = %25
  %29 = getelementptr inbounds nuw i8, ptr %0, i64 56
  %30 = load i32, ptr %29, align 8, !tbaa !25
  %31 = zext i32 %30 to i64
  tail call void @CRYPTO_clear_free(ptr noundef nonnull %27, i64 noundef %31, ptr noundef nonnull @.str, i32 noundef 1140) #10
  br label %32

32:                                               ; preds = %28, %25
  %33 = getelementptr inbounds nuw i8, ptr %0, i64 64
  %34 = load ptr, ptr %33, align 8, !tbaa !26
  %.not27 = icmp eq ptr %34, null
  br i1 %.not27, label %39, label %35

35:                                               ; preds = %32
  %36 = getelementptr inbounds nuw i8, ptr %0, i64 72
  %37 = load i32, ptr %36, align 8, !tbaa !27
  %38 = zext i32 %37 to i64
  tail call void @CRYPTO_clear_free(ptr noundef nonnull %34, i64 noundef %38, ptr noundef nonnull @.str, i32 noundef 1143) #10
  br label %39

39:                                               ; preds = %35, %32
  tail call void @llvm.memset.p0.i64(ptr noundef nonnull align 8 dereferenceable(160) %0, i8 0, i64 160, i1 false)
  store ptr %5, ptr %4, align 8, !tbaa !3
  %40 = getelementptr inbounds nuw i8, ptr %0, i64 8
  store i32 64, ptr %40, align 8, !tbaa !13
  %41 = getelementptr inbounds nuw i8, ptr %0, i64 76
  store i32 3, ptr %41, align 4, !tbaa !14
  %42 = getelementptr inbounds nuw i8, ptr %0, i64 80
  store i32 8, ptr %42, align 8, !tbaa !15
  %43 = getelementptr inbounds nuw i8, ptr %0, i64 84
  store i32 1, ptr %43, align 4, !tbaa !16
  %44 = getelementptr inbounds nuw i8, ptr %0, i64 88
  store i32 1, ptr %44, align 8, !tbaa !17
  %45 = getelementptr inbounds nuw i8, ptr %0, i64 92
  store i32 19, ptr %45, align 4, !tbaa !18
  store i32 %3, ptr %2, align 4, !tbaa !19
  ret void
}